target datalayout = "e-m:e-p270:32:32-p271:32:32-p272:64:64-i64:64-i128:128-f80:128-n8:16:32:64-S128"
target triple = "x86_64-pc-linux-gnu"

%struct.rhash_context_ext = type { %struct.rhash_context, i32, i32, i32, ptr, ptr, ptr, [0 x %struct.rhash_vector_item] }
%struct.rhash_context = type { i64, i32 }
%struct.rhash_vector_item = type { ptr, ptr }
%struct.rhash_hash_info = type { ptr, i64, i64, ptr, ptr, ptr, ptr }

@rhash_info_table = external global ptr, align 8

; Function Attrs: nounwind uwtable
define internal ptr @rhash_alloc_multi(i64 noundef %0, ptr noundef %1, i32 noundef %2) #0 {
  %4 = alloca ptr, align 8
  %5 = alloca i64, align 8
  %6 = alloca ptr, align 8
  %7 = alloca i32, align 4
  %8 = alloca ptr, align 8
  %9 = alloca ptr, align 8
  %10 = alloca i64, align 8
  %11 = alloca i64, align 8
  %12 = alloca i64, align 8
  %13 = alloca ptr, align 8
  %14 = alloca i32, align 4
  %15 = alloca i32, align 4
  %16 = alloca i32, align 4
  %17 = alloca i32, align 4
  store i64 %0, ptr %5, align 8, !tbaa !8
  store ptr %1, ptr %6, align 8, !tbaa !10
  store i32 %2, ptr %7, align 4, !tbaa !4
  call void @llvm.lifetime.start.p0(i64 8, ptr %8) #8
  call void @llvm.lifetime.start.p0(i64 8, ptr %9) #8
  store ptr null, ptr %9, align 8, !tbaa !13
  call void @llvm.lifetime.start.p0(i64 8, ptr %10) #8
  %18 = load i64, ptr %5, align 8, !tbaa !8
  %19 = mul i64 16, %18
  %20 = add i64 56, %19
  %21 = add i64 %20, 63
  %22 = and i64 %21, -64
  store i64 %22, ptr %10, align 8, !tbaa !8
  call void @llvm.lifetime.start.p0(i64 8, ptr %11) #8
  store i64 0, ptr %11, align 8, !tbaa !8
  call void @llvm.lifetime.start.p0(i64 8, ptr %12) #8
  call void @llvm.lifetime.start.p0(i64 8, ptr %13) #8
  call void @llvm.lifetime.start.p0(i64 4, ptr %14) #8
  store i32 0, ptr %14, align 4, !tbaa !4
  %23 = load i64, ptr %5, align 8, !tbaa !8
  %24 = icmp ult i64 %23, 1
  br i1 %24, label %25, label %27

25:                                               ; preds = %3
  %26 = call ptr @__errno_location() #9
  store i32 22, ptr %26, align 4, !tbaa !4
  store ptr null, ptr %4, align 8
  store i32 1, ptr %15, align 4
  br label %167

27:                                               ; preds = %3
  store i64 0, ptr %12, align 8, !tbaa !8
  br label %28

28:                                               ; preds = %85, %27
  %29 = load i64, ptr %12, align 8, !tbaa !8
  %30 = load i64, ptr %5, align 8, !tbaa !8
  %31 = icmp ult i64 %29, %30
  br i1 %31, label %32, label %88

32:                                               ; preds = %28
  call void @llvm.lifetime.start.p0(i64 4, ptr %16) #8
  %33 = load ptr, ptr %6, align 8, !tbaa !10
  %34 = load i64, ptr %12, align 8, !tbaa !8
  %35 = getelementptr inbounds nuw i32, ptr %33, i64 %34
  %36 = load i32, ptr %35, align 4, !tbaa !4
  %37 = icmp ne i32 %36, 0
  br i1 %37, label %38, label %57

38:                                               ; preds = %32
  %39 = load ptr, ptr %6, align 8, !tbaa !10
  %40 = load i64, ptr %12, align 8, !tbaa !8
  %41 = getelementptr inbounds nuw i32, ptr %39, i64 %40
  %42 = load i32, ptr %41, align 4, !tbaa !4
  %43 = and i32 %42, -1024
  %44 = icmp eq i32 %43, 0
  br i1 %44, label %45, label %57

45:                                               ; preds = %38
  %46 = load ptr, ptr %6, align 8, !tbaa !10
  %47 = load i64, ptr %12, align 8, !tbaa !8
  %48 = getelementptr inbounds nuw i32, ptr %46, i64 %47
  %49 = load i32, ptr %48, align 4, !tbaa !4
  %50 = load ptr, ptr %6, align 8, !tbaa !10
  %51 = load i64, ptr %12, align 8, !tbaa !8
  %52 = getelementptr inbounds nuw i32, ptr %50, i64 %51
  %53 = load i32, ptr %52, align 4, !tbaa !4
  %54 = sub i32 %53, 1
  %55 = and i32 %49, %54
  %56 = icmp eq i32 %55, 0
  br i1 %56, label %59, label %57

57:                                               ; preds = %45, %38, %32
  %58 = call ptr @__errno_location() #9
  store i32 22, ptr %58, align 4, !tbaa !4
  store ptr null, ptr %4, align 8
  store i32 1, ptr %15, align 4
  br label %82

59:                                               ; preds = %45
  %60 = load ptr, ptr %6, align 8, !tbaa !10
  %61 = load i64, ptr %12, align 8, !tbaa !8
  %62 = getelementptr inbounds nuw i32, ptr %60, i64 %61
  %63 = load i32, ptr %62, align 4, !tbaa !4
  %64 = load i32, ptr %14, align 4, !tbaa !4
  %65 = or i32 %64, %63
  store i32 %65, ptr %14, align 4, !tbaa !4
  %66 = load ptr, ptr %6, align 8, !tbaa !10
  %67 = load i64, ptr %12, align 8, !tbaa !8
  %68 = getelementptr inbounds nuw i32, ptr %66, i64 %67
  %69 = load i32, ptr %68, align 4, !tbaa !4
  %70 = call i32 @llvm.cttz.i32(i32 %69, i1 true)
  store i32 %70, ptr %16, align 4, !tbaa !4
  %71 = load ptr, ptr @rhash_info_table, align 8, !tbaa !15
  %72 = load i32, ptr %16, align 4, !tbaa !4
  %73 = zext i32 %72 to i64
  %74 = getelementptr inbounds nuw %struct.rhash_hash_info, ptr %71, i64 %73
  store ptr %74, ptr %8, align 8, !tbaa !15
  %75 = load ptr, ptr %8, align 8, !tbaa !15
  %76 = getelementptr inbounds nuw %struct.rhash_hash_info, ptr %75, i32 0, i32 1
  %77 = load i64, ptr %76, align 8, !tbaa !17
  %78 = add i64 %77, 63
  %79 = and i64 %78, -64
  %80 = load i64, ptr %11, align 8, !tbaa !8
  %81 = add i64 %80, %79
  store i64 %81, ptr %11, align 8, !tbaa !8
  store i32 0, ptr %15, align 4
  br label %82

82:                                               ; preds = %59, %57
  call void @llvm.lifetime.end.p0(i64 4, ptr %16) #8
  %83 = load i32, ptr %15, align 4
  switch i32 %83, label %167 [
    i32 0, label %84
  ]

84:                                               ; preds = %82
  br label %85

85:                                               ; preds = %84
  %86 = load i64, ptr %12, align 8, !tbaa !8
  %87 = add i64 %86, 1
  store i64 %87, ptr %12, align 8, !tbaa !8
  br label %28, !llvm.loop !20

88:                                               ; preds = %28
  %89 = load i64, ptr %10, align 8, !tbaa !8
  %90 = load i64, ptr %11, align 8, !tbaa !8
  %91 = add i64 %89, %90
  %92 = add i64 %91, 63
  %93 = and i64 %92, -64
  %94 = call noalias align 64 ptr @aligned_alloc(i64 noundef 64, i64 noundef %93) #10
  store ptr %94, ptr %9, align 8, !tbaa !13
  %95 = load ptr, ptr %9, align 8, !tbaa !13
  %96 = icmp eq ptr %95, null
  br i1 %96, label %97, label %98

97:                                               ; preds = %88
  store ptr null, ptr %4, align 8
  store i32 1, ptr %15, align 4
  br label %167

98:                                               ; preds = %88
  %99 = load ptr, ptr %9, align 8, !tbaa !13
  %100 = load i64, ptr %10, align 8, !tbaa !8
  call void @llvm.memset.p0.i64(ptr align 8 %99, i8 0, i64 %100, i1 false)
  %101 = load i32, ptr %14, align 4, !tbaa !4
  %102 = load ptr, ptr %9, align 8, !tbaa !13
  %103 = getelementptr inbounds nuw %struct.rhash_context_ext, ptr %102, i32 0, i32 0
  %104 = getelementptr inbounds nuw %struct.rhash_context, ptr %103, i32 0, i32 1
  store i32 %101, ptr %104, align 8, !tbaa !22
  %105 = load ptr, ptr %9, align 8, !tbaa !13
  %106 = getelementptr inbounds nuw %struct.rhash_context_ext, ptr %105, i32 0, i32 2
  store i32 1, ptr %106, align 4, !tbaa !4
  %107 = load ptr, ptr %9, align 8, !tbaa !13
  %108 = getelementptr inbounds nuw %struct.rhash_context_ext, ptr %107, i32 0, i32 3
  store volatile i32 -1340228930, ptr %108, align 8, !tbaa !4
  %109 = load i64, ptr %5, align 8, !tbaa !8
  %110 = trunc i64 %109 to i32
  %111 = load ptr, ptr %9, align 8, !tbaa !13
  %112 = getelementptr inbounds nuw %struct.rhash_context_ext, ptr %111, i32 0, i32 1
  store i32 %110, ptr %112, align 8, !tbaa !4
  %113 = load ptr, ptr %9, align 8, !tbaa !13
  %114 = load i64, ptr %10, align 8, !tbaa !8
  %115 = getelementptr inbounds nuw i8, ptr %113, i64 %114
  store ptr %115, ptr %13, align 8, !tbaa !25
  store i64 0, ptr %12, align 8, !tbaa !8
  br label %116

116:                                              ; preds = %162, %98
  %117 = load i64, ptr %12, align 8, !tbaa !8
  %118 = load i64, ptr %5, align 8, !tbaa !8
  %119 = icmp ult i64 %117, %118
  br i1 %119, label %120, label %165

120:                                              ; preds = %116
  call void @llvm.lifetime.start.p0(i64 4, ptr %17) #8
  %121 = load ptr, ptr %6, align 8, !tbaa !10
  %122 = load i64, ptr %12, align 8, !tbaa !8
  %123 = getelementptr inbounds nuw i32, ptr %121, i64 %122
  %124 = load i32, ptr %123, align 4, !tbaa !4
  %125 = call i32 @llvm.cttz.i32(i32 %124, i1 true)
  store i32 %125, ptr %17, align 4, !tbaa !4
  %126 = load ptr, ptr @rhash_info_table, align 8, !tbaa !15
  %127 = load i32, ptr %17, align 4, !tbaa !4
  %128 = zext i32 %127 to i64
  %129 = getelementptr inbounds nuw %struct.rhash_hash_info, ptr %126, i64 %128
  store ptr %129, ptr %8, align 8, !tbaa !15
  %130 = load ptr, ptr %8, align 8, !tbaa !15
  %131 = load ptr, ptr %9, align 8, !tbaa !13
  %132 = getelementptr inbounds nuw %struct.rhash_context_ext, ptr %131, i32 0, i32 7
  %133 = load i64, ptr %12, align 8, !tbaa !8
  %134 = getelementptr inbounds nuw [0 x %struct.rhash_vector_item], ptr %132, i64 0, i64 %133
  %135 = getelementptr inbounds nuw %struct.rhash_vector_item, ptr %134, i32 0, i32 0
  store ptr %130, ptr %135, align 8, !tbaa !27
  %136 = load ptr, ptr %13, align 8, !tbaa !25
  %137 = load ptr, ptr %9, align 8, !tbaa !13
  %138 = getelementptr inbounds nuw %struct.rhash_context_ext, ptr %137, i32 0, i32 7
  %139 = load i64, ptr %12, align 8, !tbaa !8
  %140 = getelementptr inbounds nuw [0 x %struct.rhash_vector_item], ptr %138, i64 0, i64 %139
  %141 = getelementptr inbounds nuw %struct.rhash_vector_item, ptr %140, i32 0, i32 1
  store ptr %136, ptr %141, align 8, !tbaa !29
  %142 = load ptr, ptr %8, align 8, !tbaa !15
  %143 = getelementptr inbounds nuw %struct.rhash_hash_info, ptr %142, i32 0, i32 1
  %144 = load i64, ptr %143, align 8, !tbaa !17
  %145 = add i64 %144, 63
  %146 = and i64 %145, -64
  %147 = load ptr, ptr %13, align 8, !tbaa !25
  %148 = getelementptr inbounds nuw i8, ptr %147, i64 %146
  store ptr %148, ptr %13, align 8, !tbaa !25
  %149 = load i32, ptr %7, align 4, !tbaa !4
  %150 = icmp ne i32 %149, 0
  br i1 %150, label %151, label %161

151:                                              ; preds = %120
  %152 = load ptr, ptr %8, align 8, !tbaa !15
  %153 = getelementptr inbounds nuw %struct.rhash_hash_info, ptr %152, i32 0, i32 3
  %154 = load ptr, ptr %153, align 8, !tbaa !30
  %155 = load ptr, ptr %9, align 8, !tbaa !13
  %156 = getelementptr inbounds nuw %struct.rhash_context_ext, ptr %155, i32 0, i32 7
  %157 = load i64, ptr %12, align 8, !tbaa !8
  %158 = getelementptr inbounds nuw [0 x %struct.rhash_vector_item], ptr %156, i64 0, i64 %157
  %159 = getelementptr inbounds nuw %struct.rhash_vector_item, ptr %158, i32 0, i32 1
  %160 = load ptr, ptr %159, align 8, !tbaa !29
  call void %154(ptr noundef %160)
  br label %161

161:                                              ; preds = %151, %120
  call void @llvm.lifetime.end.p0(i64 4, ptr %17) #8
  br label %162

162:                                              ; preds = %161
  %163 = load i64, ptr %12, align 8, !tbaa !8
  %164 = add i64 %163, 1
  store i64 %164, ptr %12, align 8, !tbaa !8
  br label %116, !llvm.loop !31

165:                                              ; preds = %116
  %166 = load ptr, ptr %9, align 8, !tbaa !13
  store ptr %166, ptr %4, align 8
  store i32 1, ptr %15, align 4
  br label %167

167:                                              ; preds = %165, %97, %82, %25
  call void @llvm.lifetime.end.p0(i64 4, ptr %14) #8
  call void @llvm.lifetime.end.p0(i64 8, ptr %13) #8
  call void @llvm.lifetime.end.p0(i64 8, ptr %12) #8
  call void @llvm.lifetime.end.p0(i64 8, ptr %11) #8
  call void @llvm.lifetime.end.p0(i64 8, ptr %10) #8
  call void @llvm.lifetime.end.p0(i64 8, ptr %9) #8
  call void @llvm.lifetime.end.p0(i64 8, ptr %8) #8
  %168 = load ptr, ptr %4, align 8
  ret ptr %168
}

; Function Attrs: nounwind uwtable
define dso_local ptr @rhash_init_multi(i64 noundef %0, ptr noundef %1) #0 {
  %3 = alloca i64, align 8
  %4 = alloca ptr, align 8
  %5 = alloca ptr, align 8
  store i64 %0, ptr %3, align 8, !tbaa !8
  store ptr %1, ptr %4, align 8, !tbaa !10
  call void @llvm.lifetime.start.p0(i64 8, ptr %5) #8
  %6 = load i64, ptr %3, align 8, !tbaa !8
  %7 = load ptr, ptr %4, align 8, !tbaa !10
  %8 = call ptr @rhash_alloc_multi(i64 noundef %6, ptr noundef %7, i32 noundef 1)
  store ptr %8, ptr %5, align 8, !tbaa !13
  %9 = load ptr, ptr %5, align 8, !tbaa !13
  %10 = getelementptr inbounds nuw %struct.rhash_context_ext, ptr %9, i32 0, i32 0
  call void @llvm.lifetime.end.p0(i64 8, ptr %5) #8
  ret ptr %10
}